; Function Attrs: mustprogress nofree norecurse nosync nounwind memory(read, argmem: readwrite, inaccessiblemem: none) uwtable
define internal noundef float @_ZN5faiss12_GLOBAL__N_118PQDistanceComputerINS_10PQDecoder8EE16distance_to_codeEPKh(ptr noundef nonnull align 8 captures(none) dereferenceable(96) %0, ptr noundef readonly captures(none) %1) unnamed_addr #12 align 2 {
  %3 = getelementptr inbounds nuw i8, ptr %0, i64 88
  %4 = load i64, ptr %3, align 8, !tbaa !134
  %5 = add i64 %4, 1
  store i64 %5, ptr %3, align 8, !tbaa !134
  %6 = getelementptr inbounds nuw i8, ptr %0, i64 48
  %7 = load ptr, ptr %6, align 8, !tbaa !132
  %8 = getelementptr inbounds nuw i8, ptr %7, i64 24
  %9 = load i64, ptr %8, align 8, !tbaa !111
  %10 = getelementptr inbounds nuw i8, ptr %7, i64 32
  %11 = load i64, ptr %10, align 8, !tbaa !136
  %12 = trunc i64 %11 to i32
  %13 = shl nuw i32 1, %12
  %14 = sext i32 %13 to i64
  %.not.i.i = icmp eq i64 %9, 0
  br i1 %.not.i.i, label %_ZN5faiss20distance_single_codeINS_10PQDecoder8EEEfmmPKfPKh.exit, label %.lr.ph.i.i.preheader

.lr.ph.i.i.preheader:                             ; preds = %2
  %15 = getelementptr inbounds nuw i8, ptr %0, i64 64
  %16 = load ptr, ptr %15, align 8, !tbaa !7
  br label %.lr.ph.i.i

.lr.ph.i.i:                                       ; preds = %.lr.ph.i.i.preheader, %.lr.ph.i.i
  %.016.i.i = phi i64 [ %24, %.lr.ph.i.i ], [ 0, %.lr.ph.i.i.preheader ]
  %.01115.i.i = phi float [ %22, %.lr.ph.i.i ], [ 0.000000e+00, %.lr.ph.i.i.preheader ]
  %.01214.i.i = phi ptr [ %23, %.lr.ph.i.i ], [ %16, %.lr.ph.i.i.preheader ]
  %.sroa.0.013.i.i = phi ptr [ %17, %.lr.ph.i.i ], [ %1, %.lr.ph.i.i.preheader ]
  %17 = getelementptr inbounds nuw i8, ptr %.sroa.0.013.i.i, i64 1
  %18 = load i8, ptr %.sroa.0.013.i.i, align 1, !tbaa !44
  %19 = zext i8 %18 to i64
  %20 = getelementptr inbounds nuw float, ptr %.01214.i.i, i64 %19
  %21 = load float, ptr %20, align 4, !tbaa !94
  %22 = fadd float %.01115.i.i, %21
  %23 = getelementptr inbounds nuw float, ptr %.01214.i.i, i64 %14
  %24 = add nuw i64 %.016.i.i, 1
  %exitcond.not.i.i = icmp eq i64 %24, %9
  br i1 %exitcond.not.i.i, label %_ZN5faiss20distance_single_codeINS_10PQDecoder8EEEfmmPKfPKh.exit, label %.lr.ph.i.i, !llvm.loop !137

_ZN5faiss20distance_single_codeINS_10PQDecoder8EEEfmmPKfPKh.exit: ; preds = %.lr.ph.i.i, %2
  %.011.lcssa.i.i = phi float [ 0.000000e+00, %2 ], [ %22, %.lr.ph.i.i ]
  ret float %.011.lcssa.i.i
}